
BLF-VLD.elf:     file format elf32-avr

Sections:
Idx Name          Size      VMA       LMA       File off  Algn
  0 .text         000003fc  00000000  00000000  000000b4  2**1
                  CONTENTS, ALLOC, LOAD, READONLY, CODE
  1 .data         00000004  00800060  000003fc  000004b0  2**0
                  CONTENTS, ALLOC, LOAD, DATA
  2 .bss          00000002  00800064  00800064  000004b4  2**0
                  ALLOC
  3 .eeprom       00000040  00810000  00810000  000004b4  2**0
                  CONTENTS, ALLOC, LOAD, READONLY, DATA
  4 .stab         00000810  00000000  00000000  000004f4  2**2
                  CONTENTS, READONLY, DEBUGGING
  5 .stabstr      000000b2  00000000  00000000  00000d04  2**0
                  CONTENTS, READONLY, DEBUGGING

Disassembly of section .text:

00000000 <__vectors>:
   0:	09 c0       	rjmp	.+18     	; 0x14 <__ctors_end>
   2:	21 c0       	rjmp	.+66     	; 0x46 <__bad_interrupt>
   4:	20 c0       	rjmp	.+64     	; 0x46 <__bad_interrupt>
   6:	1f c0       	rjmp	.+62     	; 0x46 <__bad_interrupt>
   8:	1e c0       	rjmp	.+60     	; 0x46 <__bad_interrupt>
   a:	1d c0       	rjmp	.+58     	; 0x46 <__bad_interrupt>
   c:	1c c0       	rjmp	.+56     	; 0x46 <__bad_interrupt>
   e:	1b c0       	rjmp	.+54     	; 0x46 <__bad_interrupt>
  10:	ac c1       	rjmp	.+856    	; 0x36a <__vector_8>
  12:	19 c0       	rjmp	.+50     	; 0x46 <__bad_interrupt>

00000014 <__ctors_end>:
  14:	11 24       	eor	r1, r1
  16:	1f be       	out	0x3f, r1	; 63
  18:	cf e9       	ldi	r28, 0x9F	; 159
  1a:	cd bf       	out	0x3d, r28	; 61

0000001c <__do_copy_data>:
  1c:	10 e0       	ldi	r17, 0x00	; 0
  1e:	a0 e6       	ldi	r26, 0x60	; 96
  20:	b0 e0       	ldi	r27, 0x00	; 0
  22:	ec ef       	ldi	r30, 0xFC	; 252
  24:	f3 e0       	ldi	r31, 0x03	; 3
  26:	02 c0       	rjmp	.+4      	; 0x2c <.do_copy_data_start>

00000028 <.do_copy_data_loop>:
  28:	05 90       	lpm	r0, Z+
  2a:	0d 92       	st	X+, r0

0000002c <.do_copy_data_start>:
  2c:	a4 36       	cpi	r26, 0x64	; 100
  2e:	b1 07       	cpc	r27, r17
  30:	d9 f7       	brne	.-10     	; 0x28 <.do_copy_data_loop>

00000032 <__do_clear_bss>:
  32:	10 e0       	ldi	r17, 0x00	; 0
  34:	a4 e6       	ldi	r26, 0x64	; 100
  36:	b0 e0       	ldi	r27, 0x00	; 0
  38:	01 c0       	rjmp	.+2      	; 0x3c <.do_clear_bss_start>

0000003a <.do_clear_bss_loop>:
  3a:	1d 92       	st	X+, r1

0000003c <.do_clear_bss_start>:
  3c:	a6 36       	cpi	r26, 0x66	; 102
  3e:	b1 07       	cpc	r27, r17
  40:	e1 f7       	brne	.-8      	; 0x3a <.do_clear_bss_loop>
  42:	5b d0       	rcall	.+182    	; 0xfa <main>
  44:	d9 c1       	rjmp	.+946    	; 0x3f8 <_exit>

00000046 <__bad_interrupt>:
  46:	dc cf       	rjmp	.-72     	; 0x0 <__vectors>

00000048 <start_wdt>:
  48:	87 70       	andi	r24, 0x07	; 7
  4a:	80 64       	ori	r24, 0x40	; 64
  4c:	f8 94       	cli
  4e:	a8 95       	wdr
  50:	98 e1       	ldi	r25, 0x18	; 24
  52:	91 bd       	out	0x21, r25	; 33
  54:	81 bd       	out	0x21, r24	; 33
  56:	78 94       	sei
  58:	08 95       	ret

0000005a <blink>:
  5a:	67 b3       	in	r22, 0x17	; 23
  5c:	98 b3       	in	r25, 0x18	; 24
  5e:	b9 9a       	sbi	0x17, 1	; 23
  60:	c1 98       	cbi	0x18, 1	; 24
  62:	48 e7       	ldi	r20, 0x78	; 120
  64:	50 e0       	ldi	r21, 0x00	; 0
  66:	13 c0       	rjmp	.+38     	; 0x8e <blink+0x34>
  68:	c1 9a       	sbi	0x18, 1	; 24
  6a:	20 ed       	ldi	r18, 0xD0	; 208
  6c:	37 e0       	ldi	r19, 0x07	; 7
  6e:	fa 01       	movw	r30, r20
  70:	31 97       	sbiw	r30, 0x01	; 1
  72:	f1 f7       	brne	.-4      	; 0x70 <blink+0x16>
  74:	21 50       	subi	r18, 0x01	; 1
  76:	30 40       	sbci	r19, 0x00	; 0
  78:	d1 f7       	brne	.-12     	; 0x6e <blink+0x14>
  7a:	c1 98       	cbi	0x18, 1	; 24
  7c:	20 ed       	ldi	r18, 0xD0	; 208
  7e:	37 e0       	ldi	r19, 0x07	; 7
  80:	fa 01       	movw	r30, r20
  82:	31 97       	sbiw	r30, 0x01	; 1
  84:	f1 f7       	brne	.-4      	; 0x82 <blink+0x28>
  86:	21 50       	subi	r18, 0x01	; 1
  88:	30 40       	sbci	r19, 0x00	; 0
  8a:	d1 f7       	brne	.-12     	; 0x80 <blink+0x26>
  8c:	81 50       	subi	r24, 0x01	; 1
  8e:	88 23       	and	r24, r24
  90:	59 f7       	brne	.-42     	; 0x68 <blink+0xe>
  92:	67 bb       	out	0x17, r22	; 23
  94:	98 bb       	out	0x18, r25	; 24
  96:	08 95       	ret

00000098 <strobe_signal>:
  98:	67 b3       	in	r22, 0x17	; 23
  9a:	38 b3       	in	r19, 0x18	; 24
  9c:	b9 9a       	sbi	0x17, 1	; 23
  9e:	c1 98       	cbi	0x18, 1	; 24
  a0:	20 e0       	ldi	r18, 0x00	; 0
  a2:	40 e3       	ldi	r20, 0x30	; 48
  a4:	55 e7       	ldi	r21, 0x75	; 117
  a6:	c1 9a       	sbi	0x18, 1	; 24
  a8:	ca 01       	movw	r24, r20
  aa:	01 97       	sbiw	r24, 0x01	; 1
  ac:	f1 f7       	brne	.-4      	; 0xaa <__stack+0xb>
  ae:	c1 98       	cbi	0x18, 1	; 24
  b0:	ca 01       	movw	r24, r20
  b2:	01 97       	sbiw	r24, 0x01	; 1
  b4:	f1 f7       	brne	.-4      	; 0xb2 <__stack+0x13>
  b6:	2f 5f       	subi	r18, 0xFF	; 255
  b8:	24 31       	cpi	r18, 0x14	; 20
  ba:	a9 f7       	brne	.-22     	; 0xa6 <__stack+0x7>
  bc:	67 bb       	out	0x17, r22	; 23
  be:	38 bb       	out	0x18, r19	; 24
  c0:	08 95       	ret

000000c2 <restore_mode>:
  c2:	0f 93       	push	r16
  c4:	1f 93       	push	r17
  c6:	cf 93       	push	r28
  c8:	df 93       	push	r29
  ca:	88 0f       	add	r24, r24
  cc:	88 0f       	add	r24, r24
  ce:	08 2f       	mov	r16, r24
  d0:	10 e0       	ldi	r17, 0x00	; 0
  d2:	08 5e       	subi	r16, 0xE8	; 232
  d4:	1f 4f       	sbci	r17, 0xFF	; 255
  d6:	c4 e1       	ldi	r28, 0x14	; 20
  d8:	d0 e0       	ldi	r29, 0x00	; 0
  da:	ce 01       	movw	r24, r28
  dc:	77 d1       	rcall	.+750    	; 0x3cc <__eerd_byte_tn13>
  de:	68 2f       	mov	r22, r24
  e0:	c8 01       	movw	r24, r16
  e2:	7c d1       	rcall	.+760    	; 0x3dc <__eewr_byte_tn13>
  e4:	21 96       	adiw	r28, 0x01	; 1
  e6:	0f 5f       	subi	r16, 0xFF	; 255
  e8:	1f 4f       	sbci	r17, 0xFF	; 255
  ea:	c8 31       	cpi	r28, 0x18	; 24
  ec:	d1 05       	cpc	r29, r1
  ee:	a9 f7       	brne	.-22     	; 0xda <restore_mode+0x18>
  f0:	df 91       	pop	r29
  f2:	cf 91       	pop	r28
  f4:	1f 91       	pop	r17
  f6:	0f 91       	pop	r16
  f8:	08 95       	ret

000000fa <main>:
  fa:	ff 92       	push	r15
  fc:	0f 93       	push	r16
  fe:	1f 93       	push	r17
 100:	cf 93       	push	r28
 102:	df 93       	push	r29
 104:	80 e6       	ldi	r24, 0x60	; 96
 106:	9a ee       	ldi	r25, 0xEA	; 234
 108:	01 97       	sbiw	r24, 0x01	; 1
 10a:	f1 f7       	brne	.-4      	; 0x108 <main+0xe>
 10c:	81 e0       	ldi	r24, 0x01	; 1
 10e:	90 e0       	ldi	r25, 0x00	; 0
 110:	5d d1       	rcall	.+698    	; 0x3cc <__eerd_byte_tn13>
 112:	68 2f       	mov	r22, r24
 114:	6f 5f       	subi	r22, 0xFF	; 255
 116:	60 93 62 00 	sts	0x0062, r22
 11a:	81 e0       	ldi	r24, 0x01	; 1
 11c:	90 e0       	ldi	r25, 0x00	; 0
 11e:	5e d1       	rcall	.+700    	; 0x3dc <__eewr_byte_tn13>
 120:	82 e0       	ldi	r24, 0x02	; 2
 122:	90 e0       	ldi	r25, 0x00	; 0
 124:	53 d1       	rcall	.+678    	; 0x3cc <__eerd_byte_tn13>
 126:	98 2f       	mov	r25, r24
 128:	80 91 62 00 	lds	r24, 0x0062
 12c:	87 30       	cpi	r24, 0x07	; 7
 12e:	18 f4       	brcc	.+6      	; 0x136 <main+0x3c>
 130:	99 23       	and	r25, r25
 132:	09 f4       	brne	.+2      	; 0x136 <main+0x3c>
 134:	a6 c0       	rjmp	.+332    	; 0x282 <main+0x188>
 136:	81 e0       	ldi	r24, 0x01	; 1
 138:	90 e0       	ldi	r25, 0x00	; 0
 13a:	60 e0       	ldi	r22, 0x00	; 0
 13c:	4f d1       	rcall	.+670    	; 0x3dc <__eewr_byte_tn13>
 13e:	83 e0       	ldi	r24, 0x03	; 3
 140:	90 e0       	ldi	r25, 0x00	; 0
 142:	44 d1       	rcall	.+648    	; 0x3cc <__eerd_byte_tn13>
 144:	f8 2e       	mov	r15, r24
 146:	82 e0       	ldi	r24, 0x02	; 2
 148:	90 e0       	ldi	r25, 0x00	; 0
 14a:	40 d1       	rcall	.+640    	; 0x3cc <__eerd_byte_tn13>
 14c:	81 30       	cpi	r24, 0x01	; 1
 14e:	89 f1       	breq	.+98     	; 0x1b2 <main+0xb8>
 150:	81 30       	cpi	r24, 0x01	; 1
 152:	20 f0       	brcs	.+8      	; 0x15c <main+0x62>
 154:	82 30       	cpi	r24, 0x02	; 2
 156:	09 f0       	breq	.+2      	; 0x15a <main+0x60>
 158:	8e c0       	rjmp	.+284    	; 0x276 <main+0x17c>
 15a:	4b c0       	rjmp	.+150    	; 0x1f2 <main+0xf8>
 15c:	85 e0       	ldi	r24, 0x05	; 5
 15e:	90 e0       	ldi	r25, 0x00	; 0
 160:	60 e0       	ldi	r22, 0x00	; 0
 162:	3c d1       	rcall	.+632    	; 0x3dc <__eewr_byte_tn13>
 164:	99 df       	rcall	.-206    	; 0x98 <strobe_signal>
 166:	88 e8       	ldi	r24, 0x88	; 136
 168:	93 e1       	ldi	r25, 0x13	; 19
 16a:	28 e7       	ldi	r18, 0x78	; 120
 16c:	30 e0       	ldi	r19, 0x00	; 0
 16e:	f9 01       	movw	r30, r18
 170:	31 97       	sbiw	r30, 0x01	; 1
 172:	f1 f7       	brne	.-4      	; 0x170 <main+0x76>
 174:	01 97       	sbiw	r24, 0x01	; 1
 176:	d9 f7       	brne	.-10     	; 0x16e <main+0x74>
 178:	82 e0       	ldi	r24, 0x02	; 2
 17a:	90 e0       	ldi	r25, 0x00	; 0
 17c:	61 e0       	ldi	r22, 0x01	; 1
 17e:	2e d1       	rcall	.+604    	; 0x3dc <__eewr_byte_tn13>
 180:	10 e0       	ldi	r17, 0x00	; 0
 182:	c8 e7       	ldi	r28, 0x78	; 120
 184:	d0 e0       	ldi	r29, 0x00	; 0
 186:	83 e0       	ldi	r24, 0x03	; 3
 188:	90 e0       	ldi	r25, 0x00	; 0
 18a:	61 2f       	mov	r22, r17
 18c:	27 d1       	rcall	.+590    	; 0x3dc <__eewr_byte_tn13>
 18e:	1f 5f       	subi	r17, 0xFF	; 255
 190:	81 2f       	mov	r24, r17
 192:	63 df       	rcall	.-314    	; 0x5a <blink>
 194:	80 e2       	ldi	r24, 0x20	; 32
 196:	9e e4       	ldi	r25, 0x4E	; 78
 198:	fe 01       	movw	r30, r28
 19a:	31 97       	sbiw	r30, 0x01	; 1
 19c:	f1 f7       	brne	.-4      	; 0x19a <main+0xa0>
 19e:	01 97       	sbiw	r24, 0x01	; 1
 1a0:	d9 f7       	brne	.-10     	; 0x198 <main+0x9e>
 1a2:	13 30       	cpi	r17, 0x03	; 3
 1a4:	81 f7       	brne	.-32     	; 0x186 <main+0x8c>
 1a6:	82 e0       	ldi	r24, 0x02	; 2
 1a8:	90 e0       	ldi	r25, 0x00	; 0
 1aa:	60 e0       	ldi	r22, 0x00	; 0
 1ac:	17 d1       	rcall	.+558    	; 0x3dc <__eewr_byte_tn13>
 1ae:	74 df       	rcall	.-280    	; 0x98 <strobe_signal>
 1b0:	68 c0       	rjmp	.+208    	; 0x282 <main+0x188>
 1b2:	8f 2d       	mov	r24, r15
 1b4:	88 0f       	add	r24, r24
 1b6:	88 0f       	add	r24, r24
 1b8:	08 2f       	mov	r16, r24
 1ba:	10 e0       	ldi	r17, 0x00	; 0
 1bc:	08 5e       	subi	r16, 0xE8	; 232
 1be:	1f 4f       	sbci	r17, 0xFF	; 255
 1c0:	c4 e1       	ldi	r28, 0x14	; 20
 1c2:	d0 e0       	ldi	r29, 0x00	; 0
 1c4:	c8 01       	movw	r24, r16
 1c6:	02 d1       	rcall	.+516    	; 0x3cc <__eerd_byte_tn13>
 1c8:	68 2f       	mov	r22, r24
 1ca:	ce 01       	movw	r24, r28
 1cc:	07 d1       	rcall	.+526    	; 0x3dc <__eewr_byte_tn13>
 1ce:	0f 5f       	subi	r16, 0xFF	; 255
 1d0:	1f 4f       	sbci	r17, 0xFF	; 255
 1d2:	21 96       	adiw	r28, 0x01	; 1
 1d4:	c8 31       	cpi	r28, 0x18	; 24
 1d6:	d1 05       	cpc	r29, r1
 1d8:	a9 f7       	brne	.-22     	; 0x1c4 <main+0xca>
 1da:	82 e0       	ldi	r24, 0x02	; 2
 1dc:	90 e0       	ldi	r25, 0x00	; 0
 1de:	62 e0       	ldi	r22, 0x02	; 2
 1e0:	fd d0       	rcall	.+506    	; 0x3dc <__eewr_byte_tn13>
 1e2:	84 e0       	ldi	r24, 0x04	; 4
 1e4:	90 e0       	ldi	r25, 0x00	; 0
 1e6:	60 e0       	ldi	r22, 0x00	; 0
 1e8:	f9 d0       	rcall	.+498    	; 0x3dc <__eewr_byte_tn13>
 1ea:	85 e0       	ldi	r24, 0x05	; 5
 1ec:	90 e0       	ldi	r25, 0x00	; 0
 1ee:	60 e0       	ldi	r22, 0x00	; 0
 1f0:	f5 d0       	rcall	.+490    	; 0x3dc <__eewr_byte_tn13>
 1f2:	84 e0       	ldi	r24, 0x04	; 4
 1f4:	90 e0       	ldi	r25, 0x00	; 0
 1f6:	ea d0       	rcall	.+468    	; 0x3cc <__eerd_byte_tn13>
 1f8:	18 2f       	mov	r17, r24
 1fa:	85 e0       	ldi	r24, 0x05	; 5
 1fc:	90 e0       	ldi	r25, 0x00	; 0
 1fe:	e6 d0       	rcall	.+460    	; 0x3cc <__eerd_byte_tn13>
 200:	08 2f       	mov	r16, r24
 202:	11 23       	and	r17, r17
 204:	31 f5       	brne	.+76     	; 0x252 <main+0x158>
 206:	80 fd       	sbrc	r24, 0
 208:	10 c0       	rjmp	.+32     	; 0x22a <main+0x130>
 20a:	8f 2d       	mov	r24, r15
 20c:	88 0f       	add	r24, r24
 20e:	88 0f       	add	r24, r24
 210:	90 e0       	ldi	r25, 0x00	; 0
 212:	48 96       	adiw	r24, 0x18	; 24
 214:	60 e0       	ldi	r22, 0x00	; 0
 216:	e2 d0       	rcall	.+452    	; 0x3dc <__eewr_byte_tn13>
 218:	e0 91 60 00 	lds	r30, 0x0060
 21c:	f0 91 61 00 	lds	r31, 0x0061
 220:	8f 2d       	mov	r24, r15
 222:	60 2f       	mov	r22, r16
 224:	41 e0       	ldi	r20, 0x01	; 1
 226:	09 95       	icall
 228:	18 c0       	rjmp	.+48     	; 0x25a <main+0x160>
 22a:	0e 7f       	andi	r16, 0xFE	; 254
 22c:	85 e0       	ldi	r24, 0x05	; 5
 22e:	90 e0       	ldi	r25, 0x00	; 0
 230:	60 2f       	mov	r22, r16
 232:	d4 d0       	rcall	.+424    	; 0x3dc <__eewr_byte_tn13>
 234:	31 df       	rcall	.-414    	; 0x98 <strobe_signal>
 236:	82 e0       	ldi	r24, 0x02	; 2
 238:	90 e0       	ldi	r25, 0x00	; 0
 23a:	60 e0       	ldi	r22, 0x00	; 0
 23c:	cf d0       	rcall	.+414    	; 0x3dc <__eewr_byte_tn13>
 23e:	80 e2       	ldi	r24, 0x20	; 32
 240:	9e e4       	ldi	r25, 0x4E	; 78
 242:	28 e7       	ldi	r18, 0x78	; 120
 244:	30 e0       	ldi	r19, 0x00	; 0
 246:	f9 01       	movw	r30, r18
 248:	31 97       	sbiw	r30, 0x01	; 1
 24a:	f1 f7       	brne	.-4      	; 0x248 <main+0x14e>
 24c:	01 97       	sbiw	r24, 0x01	; 1
 24e:	d9 f7       	brne	.-10     	; 0x246 <main+0x14c>
 250:	04 c0       	rjmp	.+8      	; 0x25a <main+0x160>
 252:	82 e0       	ldi	r24, 0x02	; 2
 254:	90 e0       	ldi	r25, 0x00	; 0
 256:	60 e0       	ldi	r22, 0x00	; 0
 258:	c1 d0       	rcall	.+386    	; 0x3dc <__eewr_byte_tn13>
 25a:	88 e8       	ldi	r24, 0x88	; 136
 25c:	93 e1       	ldi	r25, 0x13	; 19
 25e:	28 e7       	ldi	r18, 0x78	; 120
 260:	30 e0       	ldi	r19, 0x00	; 0
 262:	f9 01       	movw	r30, r18
 264:	31 97       	sbiw	r30, 0x01	; 1
 266:	f1 f7       	brne	.-4      	; 0x264 <main+0x16a>
 268:	01 97       	sbiw	r24, 0x01	; 1
 26a:	d9 f7       	brne	.-10     	; 0x262 <main+0x168>
 26c:	81 e0       	ldi	r24, 0x01	; 1
 26e:	f5 de       	rcall	.-534    	; 0x5a <blink>
 270:	8f 2d       	mov	r24, r15
 272:	27 df       	rcall	.-434    	; 0xc2 <restore_mode>
 274:	06 c0       	rjmp	.+12     	; 0x282 <main+0x188>
 276:	8f 2d       	mov	r24, r15
 278:	24 df       	rcall	.-440    	; 0xc2 <restore_mode>
 27a:	82 e0       	ldi	r24, 0x02	; 2
 27c:	90 e0       	ldi	r25, 0x00	; 0
 27e:	60 e0       	ldi	r22, 0x00	; 0
 280:	ad d0       	rcall	.+346    	; 0x3dc <__eewr_byte_tn13>
 282:	80 e0       	ldi	r24, 0x00	; 0
 284:	90 e0       	ldi	r25, 0x00	; 0
 286:	a2 d0       	rcall	.+324    	; 0x3cc <__eerd_byte_tn13>
 288:	80 93 65 00 	sts	0x0065, r24
 28c:	68 2f       	mov	r22, r24
 28e:	6f 5f       	subi	r22, 0xFF	; 255
 290:	63 30       	cpi	r22, 0x03	; 3
 292:	08 f0       	brcs	.+2      	; 0x296 <main+0x19c>
 294:	60 e0       	ldi	r22, 0x00	; 0
 296:	80 e0       	ldi	r24, 0x00	; 0
 298:	90 e0       	ldi	r25, 0x00	; 0
 29a:	a0 d0       	rcall	.+320    	; 0x3dc <__eewr_byte_tn13>
 29c:	8f ef       	ldi	r24, 0xFF	; 255
 29e:	87 bb       	out	0x17, r24	; 23
 2a0:	18 ba       	out	0x18, r1	; 24
 2a2:	87 e0       	ldi	r24, 0x07	; 7
 2a4:	d1 de       	rcall	.-606    	; 0x48 <start_wdt>
 2a6:	10 91 65 00 	lds	r17, 0x0065
 2aa:	81 2f       	mov	r24, r17
 2ac:	88 0f       	add	r24, r24
 2ae:	88 0f       	add	r24, r24
 2b0:	90 e0       	ldi	r25, 0x00	; 0
 2b2:	48 96       	adiw	r24, 0x18	; 24
 2b4:	8b d0       	rcall	.+278    	; 0x3cc <__eerd_byte_tn13>
 2b6:	e8 2f       	mov	r30, r24
 2b8:	f0 e0       	ldi	r31, 0x00	; 0
 2ba:	ee 0f       	add	r30, r30
 2bc:	ff 1f       	adc	r31, r31
 2be:	e0 5a       	subi	r30, 0xA0	; 160
 2c0:	ff 4f       	sbci	r31, 0xFF	; 255
 2c2:	01 90       	ld	r0, Z+
 2c4:	f0 81       	ld	r31, Z
 2c6:	e0 2d       	mov	r30, r0
 2c8:	81 2f       	mov	r24, r17
 2ca:	60 e0       	ldi	r22, 0x00	; 0
 2cc:	40 e0       	ldi	r20, 0x00	; 0
 2ce:	09 95       	icall
 2d0:	ff cf       	rjmp	.-2      	; 0x2d0 <main+0x1d6>

000002d2 <const_level>:
 2d2:	af 92       	push	r10
 2d4:	bf 92       	push	r11
 2d6:	cf 92       	push	r12
 2d8:	df 92       	push	r13
 2da:	ef 92       	push	r14
 2dc:	ff 92       	push	r15
 2de:	0f 93       	push	r16
 2e0:	1f 93       	push	r17
 2e2:	cf 93       	push	r28
 2e4:	df 93       	push	r29
 2e6:	08 2f       	mov	r16, r24
 2e8:	00 0f       	add	r16, r16
 2ea:	00 0f       	add	r16, r16
 2ec:	b9 9a       	sbi	0x17, 1	; 23
 2ee:	c1 98       	cbi	0x18, 1	; 24
 2f0:	81 e2       	ldi	r24, 0x21	; 33
 2f2:	8f bd       	out	0x2f, r24	; 47
 2f4:	81 e0       	ldi	r24, 0x01	; 1
 2f6:	83 bf       	out	0x33, r24	; 51
 2f8:	44 23       	and	r20, r20
 2fa:	81 f1       	breq	.+96     	; 0x35c <const_level+0x8a>
 2fc:	61 60       	ori	r22, 0x01	; 1
 2fe:	85 e0       	ldi	r24, 0x05	; 5
 300:	90 e0       	ldi	r25, 0x00	; 0
 302:	6c d0       	rcall	.+216    	; 0x3dc <__eewr_byte_tn13>
 304:	10 e0       	ldi	r17, 0x00	; 0
 306:	c0 2f       	mov	r28, r16
 308:	d0 e0       	ldi	r29, 0x00	; 0
 30a:	69 96       	adiw	r28, 0x19	; 25
 30c:	30 ec       	ldi	r19, 0xC0	; 192
 30e:	a3 2e       	mov	r10, r19
 310:	3d e5       	ldi	r19, 0x5D	; 93
 312:	b3 2e       	mov	r11, r19
 314:	28 e7       	ldi	r18, 0x78	; 120
 316:	c2 2e       	mov	r12, r18
 318:	d1 2c       	mov	r13, r1
 31a:	90 e6       	ldi	r25, 0x60	; 96
 31c:	e9 2e       	mov	r14, r25
 31e:	9a ee       	ldi	r25, 0xEA	; 234
 320:	f9 2e       	mov	r15, r25
 322:	ce 01       	movw	r24, r28
 324:	61 2f       	mov	r22, r17
 326:	5a d0       	rcall	.+180    	; 0x3dc <__eewr_byte_tn13>
 328:	12 be       	out	0x32, r1	; 50
 32a:	19 bd       	out	0x29, r17	; 41
 32c:	11 23       	and	r17, r17
 32e:	21 f0       	breq	.+8      	; 0x338 <const_level+0x66>
 330:	10 38       	cpi	r17, 0x80	; 128
 332:	11 f0       	breq	.+4      	; 0x338 <const_level+0x66>
 334:	1f 3f       	cpi	r17, 0xFF	; 255
 336:	69 f4       	brne	.+26     	; 0x352 <const_level+0x80>
 338:	19 bc       	out	0x29, r1	; 41
 33a:	c5 01       	movw	r24, r10
 33c:	01 97       	sbiw	r24, 0x01	; 1
 33e:	f1 f7       	brne	.-4      	; 0x33c <const_level+0x6a>
 340:	19 bd       	out	0x29, r17	; 41
 342:	80 e1       	ldi	r24, 0x10	; 16
 344:	97 e2       	ldi	r25, 0x27	; 39
 346:	f6 01       	movw	r30, r12
 348:	31 97       	sbiw	r30, 0x01	; 1
 34a:	f1 f7       	brne	.-4      	; 0x348 <const_level+0x76>
 34c:	01 97       	sbiw	r24, 0x01	; 1
 34e:	d9 f7       	brne	.-10     	; 0x346 <const_level+0x74>
 350:	03 c0       	rjmp	.+6      	; 0x358 <const_level+0x86>
 352:	c7 01       	movw	r24, r14
 354:	01 97       	sbiw	r24, 0x01	; 1
 356:	f1 f7       	brne	.-4      	; 0x354 <const_level+0x82>
 358:	1f 5f       	subi	r17, 0xFF	; 255
 35a:	e3 cf       	rjmp	.-58     	; 0x322 <const_level+0x50>
 35c:	80 2f       	mov	r24, r16
 35e:	90 e0       	ldi	r25, 0x00	; 0
 360:	49 96       	adiw	r24, 0x19	; 25
 362:	34 d0       	rcall	.+104    	; 0x3cc <__eerd_byte_tn13>
 364:	12 be       	out	0x32, r1	; 50
 366:	89 bd       	out	0x29, r24	; 41
 368:	ff cf       	rjmp	.-2      	; 0x368 <const_level+0x96>

0000036a <__vector_8>:
 36a:	1f 92       	push	r1
 36c:	0f 92       	push	r0
 36e:	0f b6       	in	r0, 0x3f	; 63
 370:	0f 92       	push	r0
 372:	11 24       	eor	r1, r1
 374:	2f 93       	push	r18
 376:	3f 93       	push	r19
 378:	4f 93       	push	r20
 37a:	5f 93       	push	r21
 37c:	6f 93       	push	r22
 37e:	7f 93       	push	r23
 380:	8f 93       	push	r24
 382:	9f 93       	push	r25
 384:	af 93       	push	r26
 386:	bf 93       	push	r27
 388:	ef 93       	push	r30
 38a:	ff 93       	push	r31
 38c:	80 91 62 00 	lds	r24, 0x0062
 390:	88 23       	and	r24, r24
 392:	59 f0       	breq	.+22     	; 0x3aa <__vector_8+0x40>
 394:	10 92 62 00 	sts	0x0062, r1
 398:	80 e0       	ldi	r24, 0x00	; 0
 39a:	90 e0       	ldi	r25, 0x00	; 0
 39c:	60 91 65 00 	lds	r22, 0x0065
 3a0:	1d d0       	rcall	.+58     	; 0x3dc <__eewr_byte_tn13>
 3a2:	81 e0       	ldi	r24, 0x01	; 1
 3a4:	90 e0       	ldi	r25, 0x00	; 0
 3a6:	60 e0       	ldi	r22, 0x00	; 0
 3a8:	19 d0       	rcall	.+50     	; 0x3dc <__eewr_byte_tn13>
 3aa:	ff 91       	pop	r31
 3ac:	ef 91       	pop	r30
 3ae:	bf 91       	pop	r27
 3b0:	af 91       	pop	r26
 3b2:	9f 91       	pop	r25
 3b4:	8f 91       	pop	r24
 3b6:	7f 91       	pop	r23
 3b8:	6f 91       	pop	r22
 3ba:	5f 91       	pop	r21
 3bc:	4f 91       	pop	r20
 3be:	3f 91       	pop	r19
 3c0:	2f 91       	pop	r18
 3c2:	0f 90       	pop	r0
 3c4:	0f be       	out	0x3f, r0	; 63
 3c6:	0f 90       	pop	r0
 3c8:	1f 90       	pop	r1
 3ca:	18 95       	reti

000003cc <__eerd_byte_tn13>:
 3cc:	e1 99       	sbic	0x1c, 1	; 28
 3ce:	fe cf       	rjmp	.-4      	; 0x3cc <__eerd_byte_tn13>
 3d0:	1f ba       	out	0x1f, r1	; 31
 3d2:	8e bb       	out	0x1e, r24	; 30
 3d4:	e0 9a       	sbi	0x1c, 0	; 28
 3d6:	99 27       	eor	r25, r25
 3d8:	8d b3       	in	r24, 0x1d	; 29
 3da:	08 95       	ret

000003dc <__eewr_byte_tn13>:
 3dc:	26 2f       	mov	r18, r22

000003de <__eewr_r18_tn13>:
 3de:	e1 99       	sbic	0x1c, 1	; 28
 3e0:	fe cf       	rjmp	.-4      	; 0x3de <__eewr_r18_tn13>
 3e2:	1c ba       	out	0x1c, r1	; 28
 3e4:	1f ba       	out	0x1f, r1	; 31
 3e6:	8e bb       	out	0x1e, r24	; 30
 3e8:	2d bb       	out	0x1d, r18	; 29
 3ea:	0f b6       	in	r0, 0x3f	; 63
 3ec:	f8 94       	cli
 3ee:	e2 9a       	sbi	0x1c, 2	; 28
 3f0:	e1 9a       	sbi	0x1c, 1	; 28
 3f2:	0f be       	out	0x3f, r0	; 63
 3f4:	01 96       	adiw	r24, 0x01	; 1
 3f6:	08 95       	ret

000003f8 <_exit>:
 3f8:	f8 94       	cli

000003fa <__stop_program>:
 3fa:	ff cf       	rjmp	.-2      	; 0x3fa <__stop_program>
